CCS PCH C Compiler, Version 4.057, 10706               01-Set-08 23:42

               Filename: C:\DomoticaNovo\Estores\ProgramaPIC\LedTest\main.lst

               ROM used: 250 bytes (1%)
                         Largest free fragment is 32518
               RAM used: 6 (0%) at main() level
                         6 (0%) worst case
               Stack:    1 locations

*
0000:  GOTO   0064
.................... #include "C:\DomoticaNovo\Estores\ProgramaPIC\LedTest\main.h" 
.................... #include <18F2580.h> 
.................... //////// Standard Header file for the PIC18F2580 device //////////////// 
.................... #device PIC18F2580 
.................... #list 
....................  
.................... #device adc=8 
....................  
.................... #FUSES NOWDT                    //No Watch Dog Timer 
.................... #FUSES WDT128                   //Watch Dog Timer uses 1:128 Postscale 
.................... #FUSES HS                       //High speed Osc (> 4mhz) 
.................... #FUSES NOPROTECT                //Code not protected from reading 
.................... #FUSES BROWNOUT                 //Reset when brownout detected 
.................... #FUSES BORV21                   //Brownout reset at 2.1V 
.................... #FUSES NOPUT                    //No Power Up Timer 
.................... #FUSES NOCPD                    //No EE protection 
.................... #FUSES STVREN                   //Stack full/underflow will cause reset 
.................... #FUSES NODEBUG                  //No Debug mode for ICD 
.................... #FUSES NOLVP                      //Low Voltage Programming on B3(PIC16) or B5(PIC18) 
.................... #FUSES NOWRT                    //Program memory not write protected 
.................... #FUSES NOWRTD                   //Data EEPROM not write protected 
.................... #FUSES IESO                     //Internal External Switch Over mode enabled 
.................... #FUSES FCMEN                    //Fail-safe clock monitor enabled 
.................... #FUSES PBADEN                   //PORTB pins are configured as analog input channels on RESET 
.................... #FUSES BBSIZ2K                  //2K words Boot Block size 
.................... #FUSES NOWRTC                   //configuration not registers write protected 
.................... #FUSES NOWRTB                   //Boot block not write protected 
.................... #FUSES NOEBTR                   //Memory not protected from table reads 
.................... #FUSES NOEBTRB                  //Boot block not protected from table reads 
.................... #FUSES NOCPB                    //No Boot Block code protection 
.................... #FUSES LPT1OSC                  //Timer1 configured for low-power operation 
.................... #FUSES MCLR                     //Master Clear pin enabled 
.................... #FUSES XINST                    //Extended set extension and Indexed Addressing mode enabled 
....................  
.................... #use delay(clock=20000000) 
003E:  CLRF   FEA
0040:  MOVLW  06
0042:  MOVWF  FE9
0044:  MOVF   FEF,W
0046:  BZ    0062
0048:  MOVLW  06
004A:  MOVWF  01
004C:  CLRF   00
004E:  DECFSZ 00,F
0050:  BRA    004E
0052:  DECFSZ 01,F
0054:  BRA    004C
0056:  MOVLW  7B
0058:  MOVWF  00
005A:  DECFSZ 00,F
005C:  BRA    005A
005E:  DECFSZ FEF,F
0060:  BRA    0048
0062:  RETLW  00
.................... #use rs232(baud=9600,parity=N,xmit=PIN_C6,rcv=PIN_C7,bits=8) 
....................  
....................  
....................  
....................  
.................... void main() 
.................... { 
0064:  CLRF   FF8
0066:  BCF    FD0.7
0068:  CLRF   FEA
006A:  CLRF   FE9
006C:  BSF    FB8.3
006E:  MOVLW  08
0070:  MOVWF  FAF
0072:  MOVLW  02
0074:  MOVWF  FB0
0076:  MOVLW  A6
0078:  MOVWF  FAC
007A:  MOVLW  90
007C:  MOVWF  FAB
007E:  MOVF   FC1,W
0080:  ANDLW  C0
0082:  IORLW  0F
0084:  MOVWF  FC1
....................  
....................  
....................    setup_adc_ports(NO_ANALOGS|VSS_VDD); 
0086:  MOVF   FC1,W
0088:  ANDLW  C0
008A:  IORLW  0F
008C:  MOVWF  FC1
....................    setup_adc(ADC_OFF|ADC_TAD_MUL_0); 
008E:  BCF    FC2.0
....................    setup_spi(SPI_SS_DISABLED); 
0090:  BCF    FC6.5
0092:  BCF    F94.5
0094:  BSF    F94.4
0096:  BCF    F94.3
0098:  MOVLW  01
009A:  MOVWF  FC6
009C:  MOVLW  00
009E:  MOVWF  FC7
....................    setup_wdt(WDT_OFF); 
00A0:  BCF    FD1.0
....................    setup_timer_0(RTCC_INTERNAL); 
00A2:  MOVLW  80
00A4:  MOVWF  FD5
....................    setup_timer_1(T1_DISABLED); 
00A6:  CLRF   FCD
....................    setup_timer_2(T2_DISABLED,0,1); 
00A8:  MOVLW  00
00AA:  MOVWF  FCA
00AC:  MOVLW  00
00AE:  MOVWF  FCB
....................    setup_vref(FALSE); 
00B0:  CLRF   FB5
....................    printf("olaaaaaa....."); 
00B2:  CLRF   06
00B4:  MOVF   06,W
00B6:  RCALL  0004
00B8:  INCF   06,F
00BA:  MOVWF  00
00BC:  MOVF   00,W
00BE:  BTFSS  F9E.4
00C0:  BRA    00BE
00C2:  MOVWF  FAD
00C4:  MOVLW  0D
00C6:  SUBWF  06,W
00C8:  BNZ   00B4
....................    while(true) 
....................    { 
....................      printf("adeus....."); 
00CA:  CLRF   06
00CC:  MOVF   06,W
00CE:  RCALL  0022
00D0:  INCF   06,F
00D2:  MOVWF  00
00D4:  MOVF   00,W
00D6:  BTFSS  F9E.4
00D8:  BRA    00D6
00DA:  MOVWF  FAD
00DC:  MOVLW  0A
00DE:  SUBWF  06,W
00E0:  BNZ   00CC
....................    output_high(pin_c0); 
00E2:  BCF    F94.0
00E4:  BSF    F8B.0
....................    delay_ms(100); 
00E6:  MOVLW  64
00E8:  MOVWF  06
00EA:  RCALL  003E
....................    output_low(pin_c0); 
00EC:  BCF    F94.0
00EE:  BCF    F8B.0
....................    delay_ms(100); 
00F0:  MOVLW  64
00F2:  MOVWF  06
00F4:  RCALL  003E
....................    } 
00F6:  BRA    00CA
.................... //Setup_Oscillator parameter not selected from Intr Oscillotar Config tab 
....................  
....................    // TODO: USER CODE!! 
....................  
.................... } 
00F8:  SLEEP 

Configuration Fuses:
   Word  1: C200   HS IESO FCMEN
   Word  2: 0E1F   BROWNOUT WDT128 NOWDT BORV21 NOPUT
   Word  3: 8600   PBADEN LPT1OSC MCLR
   Word  4: 0091   STVREN NODEBUG NOLVP BBSIZ2K NOXINST
   Word  5: C00F   NOPROTECT NOCPD NOCPB
   Word  6: E00F   NOWRT NOWRTD NOWRTC NOWRTB
   Word  7: 400F   NOEBTR NOEBTRB
